target datalayout = "e-m:e-p270:32:32-p271:32:32-p272:64:64-i64:64-i128:128-f80:128-n8:16:32:64-S128"
target triple = "x86_64-pc-linux-gnu"

; Function Attrs: nounwind uwtable
define i32 @X509V3_EXT_print_fp(ptr noundef %0, ptr noundef %1, i32 noundef %2, i32 noundef %3) #0 {
  %5 = alloca i32, align 4
  %6 = alloca ptr, align 8
  %7 = alloca ptr, align 8
  %8 = alloca i32, align 4
  %9 = alloca i32, align 4
  %10 = alloca ptr, align 8
  %11 = alloca i32, align 4
  %12 = alloca i32, align 4
  store ptr %0, ptr %6, align 8, !tbaa !41
  store ptr %1, ptr %7, align 8, !tbaa !19
  store i32 %2, ptr %8, align 4, !tbaa !10
  store i32 %3, ptr %9, align 4, !tbaa !10
  call void @llvm.lifetime.start.p0(i64 8, ptr %10) #4
  call void @llvm.lifetime.start.p0(i64 4, ptr %11) #4
  %13 = load ptr, ptr %6, align 8, !tbaa !41
  %14 = call ptr @BIO_new_fp(ptr noundef %13, i32 noundef 0)
  store ptr %14, ptr %10, align 8, !tbaa !3
  %15 = icmp eq ptr %14, null
  br i1 %15, label %16, label %17

16:                                               ; preds = %4
  store i32 0, ptr %5, align 4
  store i32 1, ptr %12, align 4
  br label %27

17:                                               ; preds = %4
  %18 = load ptr, ptr %10, align 8, !tbaa !3
  %19 = load ptr, ptr %7, align 8, !tbaa !19
  %20 = load i32, ptr %8, align 4, !tbaa !10
  %21 = sext i32 %20 to i64
  %22 = load i32, ptr %9, align 4, !tbaa !10
  %23 = call i32 @X509V3_EXT_print(ptr noundef %18, ptr noundef %19, i64 noundef %21, i32 noundef %22)
  store i32 %23, ptr %11, align 4, !tbaa !10
  %24 = load ptr, ptr %10, align 8, !tbaa !3
  %25 = call i32 @BIO_free(ptr noundef %24)
  %26 = load i32, ptr %11, align 4, !tbaa !10
  store i32 %26, ptr %5, align 4
  store i32 1, ptr %12, align 4
  br label %27

27:                                               ; preds = %17, %16
  call void @llvm.lifetime.end.p0(i64 4, ptr %11) #4
  call void @llvm.lifetime.end.p0(i64 8, ptr %10) #4
  %28 = load i32, ptr %5, align 4
  ret i32 %28
}