; Function Attrs: nounwind uwtable
define i32 @X509V3_EXT_print_fp(ptr noundef %0, ptr noundef %1, i32 noundef %2, i32 noundef %3) local_unnamed_addr #0 {
  %5 = tail call ptr @BIO_new_fp(ptr noundef %0, i32 noundef 0) #3
  %6 = icmp eq ptr %5, null
  br i1 %6, label %11, label %7

7:                                                ; preds = %4
  %8 = sext i32 %2 to i64
  %9 = tail call i32 @X509V3_EXT_print(ptr noundef nonnull %5, ptr noundef %1, i64 noundef %8, i32 noundef %3)
  %10 = tail call i32 @BIO_free(ptr noundef nonnull %5) #3
  br label %11

11:                                               ; preds = %4, %7
  %.0 = phi i32 [ %9, %7 ], [ 0, %4 ]
  ret i32 %.0
}